; Function Attrs: mustprogress uwtable
define void @_ZN3nix14SourceAccessorC2Ev(ptr noundef nonnull align 8 dereferenceable(80) %0) unnamed_addr #4 align 2 personality ptr @__gxx_personality_v0 {
  %2 = alloca %"class.std::allocator", align 1
  %3 = alloca %"class.std::allocator", align 1
  store ptr getelementptr inbounds ({ [13 x ptr] }, ptr @_ZTVN3nix14SourceAccessorE, i64 0, i32 0, i64 2), ptr %0, align 8
  %4 = getelementptr inbounds i8, ptr %0, i64 8
  %5 = atomicrmw add ptr @_ZN3nixL10nextNumberE, i64 1 seq_cst, align 8
  %6 = add i64 %5, 1
  store i64 %6, ptr %4, align 8
  %7 = getelementptr inbounds i8, ptr %0, i64 16
  call void @_ZNSaIcEC1Ev(ptr noundef nonnull align 1 dereferenceable(1) %3) #23
  invoke void @_ZNSt7__cxx1112basic_stringIcSt11char_traitsIcESaIcEEC2IS3_EEPKcRKS3_(ptr noundef nonnull align 8 dereferenceable(32) %7, ptr noundef nonnull @.str, ptr noundef nonnull align 1 dereferenceable(1) %3)
          to label %8 unwind label %13

8:                                                ; preds = %1
  call void @_ZNSaIcED1Ev(ptr noundef nonnull align 1 dereferenceable(1) %3) #23
  %9 = getelementptr inbounds i8, ptr %0, i64 48
  call void @llvm.lifetime.start.p0(i64 1, ptr nonnull %2)
  %10 = getelementptr inbounds i8, ptr %0, i64 64
  call void @_ZNSaIcEC1Ev(ptr noundef nonnull align 1 dereferenceable(1) %2) #23
  call void @_ZNSaIcEC2ERKS_(ptr noundef nonnull align 1 dereferenceable(1) %9, ptr noundef nonnull align 1 dereferenceable(1) %2) #23
  store ptr %10, ptr %9, align 8
  call void @_ZNSaIcED1Ev(ptr noundef nonnull align 1 dereferenceable(1) %2) #23
  %11 = getelementptr inbounds i8, ptr %0, i64 56
  store i64 0, ptr %11, align 8
  %12 = load ptr, ptr %9, align 8
  store i8 0, ptr %12, align 1
  call void @llvm.lifetime.end.p0(i64 1, ptr nonnull %2)
  ret void

13:                                               ; preds = %1
  %14 = landingpad { ptr, i32 }
          cleanup
  call void @_ZNSaIcED1Ev(ptr noundef nonnull align 1 dereferenceable(1) %3) #23
  resume { ptr, i32 } %14
}